target datalayout = "e-m:e-p270:32:32-p271:32:32-p272:64:64-i64:64-i128:128-f80:128-n8:16:32:64-S128"
target triple = "x86_64-unknown-linux-gnu"

%struct.UText = type { i32, i32, i32, i32, i64, i32, i32, i64, i32, i32, ptr, ptr, ptr, ptr, ptr, ptr, ptr, ptr, i64, i32, i32, i64, i32, i32 }

; Function Attrs: mustprogress uwtable
define internal void @_ZL13utf8TextCloseP5UText(ptr noundef %ut) #0 {
entry:
  %ut.addr = alloca ptr, align 8
  %s = alloca ptr, align 8
  store ptr %ut, ptr %ut.addr, align 8
  %0 = load ptr, ptr %ut.addr, align 8
  %providerProperties = getelementptr inbounds %struct.UText, ptr %0, i32 0, i32 2
  %1 = load i32, ptr %providerProperties, align 8
  %and = and i32 %1, 32
  %tobool = icmp ne i32 %and, 0
  br i1 %tobool, label %if.then, label %if.end

if.then:                                          ; preds = %entry
  %2 = load ptr, ptr %ut.addr, align 8
  %context = getelementptr inbounds %struct.UText, ptr %2, i32 0, i32 13
  %3 = load ptr, ptr %context, align 8
  store ptr %3, ptr %s, align 8
  %4 = load ptr, ptr %s, align 8
  call void @uprv_free_75(ptr noundef %4)
  %5 = load ptr, ptr %ut.addr, align 8
  %context1 = getelementptr inbounds %struct.UText, ptr %5, i32 0, i32 13
  store ptr null, ptr %context1, align 8
  br label %if.end

if.end:                                           ; preds = %if.then, %entry
  ret void
}